target datalayout = "e-m:e-p270:32:32-p271:32:32-p272:64:64-i64:64-i128:128-f80:128-n8:16:32:64-S128"
target triple = "x86_64-pc-linux-gnu"

%"struct.cv::Ptr.13" = type { %"class.std::shared_ptr.14" }
%"class.std::shared_ptr.14" = type { %"class.std::__shared_ptr.15" }
%"class.std::__shared_ptr.15" = type { ptr, %"class.std::__shared_count" }
%"class.std::__shared_count" = type { ptr }
%"class.std::__cxx11::basic_string" = type { %"struct.std::__cxx11::basic_string<char>::_Alloc_hider", i64, %union.anon }
%"struct.std::__cxx11::basic_string<char>::_Alloc_hider" = type { ptr }
%union.anon = type { i64, [8 x i8] }
%"class.std::vector" = type { %"struct.std::_Vector_base" }
%"struct.std::_Vector_base" = type { %"struct.std::_Vector_base<cv::Mat, std::allocator<cv::Mat>>::_Vector_impl" }
%"struct.std::_Vector_base<cv::Mat, std::allocator<cv::Mat>>::_Vector_impl" = type { %"struct.std::_Vector_base<cv::Mat, std::allocator<cv::Mat>>::_Vector_impl_data" }
%"struct.std::_Vector_base<cv::Mat, std::allocator<cv::Mat>>::_Vector_impl_data" = type { ptr, ptr, ptr }
%"class.cv::ImageCollection" = type { %"struct.cv::Ptr.25" }
%"struct.cv::Ptr.25" = type { %"class.std::shared_ptr.26" }
%"class.std::shared_ptr.26" = type { %"class.std::__shared_ptr.27" }
%"class.std::__shared_ptr.27" = type { ptr, %"class.std::__shared_count" }
%"class.cv::ImageCollection::Impl" = type { %"class.std::__cxx11::basic_string", i32, i64, i32, i32, i32, %"class.std::vector", %"struct.cv::Ptr.13" }
%"struct.cv::ImageCollection::iterator" = type <{ ptr, i32, [4 x i8] }>

@_ZN2cv15ImageCollection8iteratorC1EPS0_i = unnamed_addr alias void (ptr, ptr, i32), ptr @_ZN2cv15ImageCollection8iteratorC2EPS0_i

; Function Attrs: mustprogress nounwind uwtable
define noundef i64 @_ZNK2cv15ImageCollection4Impl4sizeEv(ptr noundef nonnull align 8 dereferenceable(104) %0) #9 align 2 {
  %2 = alloca ptr, align 8
  store ptr %0, ptr %2, align 8, !tbaa !132
  %3 = load ptr, ptr %2, align 8
  %4 = getelementptr inbounds nuw %"class.cv::ImageCollection::Impl", ptr %3, i32 0, i32 2
  %5 = load i64, ptr %4, align 8, !tbaa !142
  ret i64 %5
}

; Function Attrs: mustprogress nounwind uwtable
define linkonce_odr hidden noundef ptr @_ZNKSt12__shared_ptrIN2cv15ImageCollection4ImplELN9__gnu_cxx12_Lock_policyE2EE3getEv(ptr noundef nonnull align 8 dereferenceable(16) %0) #9 comdat align 2 {
  %2 = alloca ptr, align 8
  store ptr %0, ptr %2, align 8, !tbaa !191
  %3 = load ptr, ptr %2, align 8
  %4 = getelementptr inbounds nuw %"class.std::__shared_ptr.27", ptr %3, i32 0, i32 0
  %5 = load ptr, ptr %4, align 8, !tbaa !1209
  ret ptr %5
}

; Function Attrs: mustprogress uwtable
define { ptr, i32 } @_ZN2cv15ImageCollection4Impl3endEPS0_(ptr noundef nonnull align 8 dereferenceable(104) %0, ptr noundef %1) #5 align 2 {
  %3 = alloca %"struct.cv::ImageCollection::iterator", align 8
  %4 = alloca ptr, align 8
  %5 = alloca ptr, align 8
  store ptr %0, ptr %4, align 8, !tbaa !132
  store ptr %1, ptr %5, align 8, !tbaa !181
  %6 = load ptr, ptr %4, align 8
  %7 = load ptr, ptr %5, align 8, !tbaa !181
  %8 = call noundef i64 @_ZNK2cv15ImageCollection4Impl4sizeEv(ptr noundef nonnull align 8 dereferenceable(104) %6)
  %9 = trunc i64 %8 to i32
  call void @_ZN2cv15ImageCollection8iteratorC1EPS0_i(ptr noundef nonnull align 8 dereferenceable(12) %3, ptr noundef %7, i32 noundef %9)
  %10 = load { ptr, i32 }, ptr %3, align 8
  ret { ptr, i32 } %10
}

; Function Attrs: mustprogress nounwind uwtable
define linkonce_odr hidden noundef ptr @_ZNK2cv3PtrINS_15ImageCollection4ImplEEptEv(ptr noundef nonnull align 8 dereferenceable(16) %0) #9 comdat align 2 {
  %2 = alloca ptr, align 8
  store ptr %0, ptr %2, align 8, !tbaa !184
  %3 = load ptr, ptr %2, align 8
  %4 = call noundef ptr @_ZNKSt12__shared_ptrIN2cv15ImageCollection4ImplELN9__gnu_cxx12_Lock_policyE2EE3getEv(ptr noundef nonnull align 8 dereferenceable(16) %3) #3
  ret ptr %4
}

; Function Attrs: mustprogress uwtable
define { ptr, i32 } @_ZN2cv15ImageCollection3endEv(ptr noundef nonnull align 8 dereferenceable(16) %0) #5 align 2 {
  %2 = alloca %"struct.cv::ImageCollection::iterator", align 8
  %3 = alloca ptr, align 8
  %4 = alloca { ptr, i32 }, align 8
  store ptr %0, ptr %3, align 8, !tbaa !181
  %5 = load ptr, ptr %3, align 8
  %6 = getelementptr inbounds nuw %"class.cv::ImageCollection", ptr %5, i32 0, i32 0
  %7 = call noundef ptr @_ZNK2cv3PtrINS_15ImageCollection4ImplEEptEv(ptr noundef nonnull align 8 dereferenceable(16) %6) #3
  %8 = call { ptr, i32 } @_ZN2cv15ImageCollection4Impl3endEPS0_(ptr noundef nonnull align 8 dereferenceable(104) %7, ptr noundef %5)
  store { ptr, i32 } %8, ptr %4, align 8
  call void @llvm.memcpy.p0.p0.i64(ptr align 8 %2, ptr align 8 %4, i64 12, i1 false)
  %9 = load { ptr, i32 }, ptr %2, align 8
  ret { ptr, i32 } %9
}