; Function Attrs: mustprogress uwtable
define { ptr, i32 } @_ZN2cv15ImageCollection3endEv(ptr noundef nonnull align 8 dereferenceable(16) %0) local_unnamed_addr #4 align 2 {
  %2 = alloca %"struct.cv::ImageCollection::iterator", align 8
  %3 = load ptr, ptr %0, align 8, !tbaa !128
  call void @llvm.lifetime.start.p0(i64 16, ptr nonnull %2)
  %4 = getelementptr inbounds nuw i8, ptr %3, i64 40
  %5 = load i64, ptr %4, align 8, !tbaa !131
  %6 = trunc i64 %5 to i32
  call void @_ZN2cv15ImageCollection8iteratorC1EPS0_i(ptr noundef nonnull align 8 dereferenceable(12) %2, ptr noundef nonnull %0, i32 noundef %6)
  %.fca.0.load.i = load ptr, ptr %2, align 8
  %.fca.0.insert.i = insertvalue { ptr, i32 } poison, ptr %.fca.0.load.i, 0
  %.fca.1.gep.i = getelementptr inbounds nuw i8, ptr %2, i64 8
  %.fca.1.load.i = load i32, ptr %.fca.1.gep.i, align 8
  %.fca.1.insert.i = insertvalue { ptr, i32 } %.fca.0.insert.i, i32 %.fca.1.load.i, 1
  call void @llvm.lifetime.end.p0(i64 16, ptr nonnull %2)
  ret { ptr, i32 } %.fca.1.insert.i
}